; Function Attrs: nounwind uwtable
define void @Gia_ManDupAppendShare(ptr noundef %0, ptr noundef readonly captures(none) %1) local_unnamed_addr #1 {
  %3 = getelementptr i8, ptr %0, i64 100
  %.val = load i32, ptr %3, align 4
  %4 = icmp eq i32 %.val, 0
  br i1 %4, label %5, label %6

5:                                                ; preds = %2
  tail call void @Gia_ManHashStart(ptr noundef nonnull %0) #29
  br label %6

6:                                                ; preds = %5, %2
  %7 = getelementptr i8, ptr %1, i64 32
  %.val30 = load ptr, ptr %7, align 8
  %8 = getelementptr inbounds nuw i8, ptr %.val30, i64 8
  store i32 0, ptr %8, align 4
  %9 = getelementptr inbounds nuw i8, ptr %1, i64 24
  %10 = load i32, ptr %9, align 8
  %11 = icmp sgt i32 %10, 1
  br i1 %11, label %.lr.ph, label %.critedge

.lr.ph:                                           ; preds = %6
  %12 = getelementptr i8, ptr %0, i64 32
  %13 = getelementptr i8, ptr %0, i64 64
  br label %14

14:                                               ; preds = %.lr.ph, %68
  %indvars.iv = phi i64 [ 1, %.lr.ph ], [ %indvars.iv.next, %68 ]
  %.val25 = load ptr, ptr %7, align 8
  %15 = getelementptr inbounds nuw %struct.Gia_Obj_t_, ptr %.val25, i64 %indvars.iv
  %.val32 = load i64, ptr %15, align 4
  %16 = and i64 %.val32, 2147483648
  %.not.i = icmp eq i64 %16, 0
  %17 = and i64 %.val32, 536870911
  %18 = icmp ne i64 %17, 536870911
  %narrow.i = and i1 %.not.i, %18
  br i1 %narrow.i, label %19, label %37

19:                                               ; preds = %14
  %20 = sub nsw i64 0, %17
  %21 = getelementptr inbounds %struct.Gia_Obj_t_, ptr %15, i64 %20, i32 1
  %22 = load i32, ptr %21, align 4
  %23 = trunc i64 %.val32 to i32
  %24 = lshr i32 %23, 29
  %25 = and i32 %24, 1
  %26 = xor i32 %22, %25
  %27 = lshr i64 %.val32, 32
  %28 = and i64 %27, 536870911
  %29 = sub nsw i64 0, %28
  %30 = getelementptr inbounds %struct.Gia_Obj_t_, ptr %15, i64 %29, i32 1
  %31 = load i32, ptr %30, align 4
  %32 = lshr i64 %.val32, 61
  %33 = trunc nuw nsw i64 %32 to i32
  %34 = and i32 %33, 1
  %35 = xor i32 %31, %34
  %36 = tail call i32 @Gia_ManHashAnd(ptr noundef %0, i32 noundef %26, i32 noundef %35) #29
  br label %.sink.split

37:                                               ; preds = %14
  %38 = and i64 %.val32, 2684354559
  %narrow.i34.not = icmp eq i64 %38, 2684354559
  br i1 %narrow.i34.not, label %39, label %57

39:                                               ; preds = %37
  %40 = lshr i64 %.val32, 32
  %41 = and i64 %40, 536870911
  %.val26 = load ptr, ptr %12, align 8
  %.val27 = load ptr, ptr %13, align 8
  %42 = getelementptr i8, ptr %.val27, i64 8
  %.val27.val = load ptr, ptr %42, align 8
  %43 = getelementptr inbounds nuw i32, ptr %.val27.val, i64 %41
  %44 = load i32, ptr %43, align 4
  %45 = sext i32 %44 to i64
  %46 = getelementptr inbounds %struct.Gia_Obj_t_, ptr %.val26, i64 %45
  %47 = ptrtoint ptr %46 to i64
  %48 = and i64 %47, -2
  %49 = ptrtoint ptr %.val26 to i64
  %50 = sub i64 %48, %49
  %51 = sdiv exact i64 %50, 12
  %52 = trunc i64 %51 to i32
  %53 = trunc i64 %47 to i32
  %54 = and i32 %53, 1
  %55 = shl nsw i32 %52, 1
  %56 = or disjoint i32 %55, %54
  br label %.sink.split

57:                                               ; preds = %37
  %.not.i35 = icmp ne i64 %16, 0
  %narrow.i36 = and i1 %.not.i35, %18
  br i1 %narrow.i36, label %58, label %68

58:                                               ; preds = %57
  %59 = sub nsw i64 0, %17
  %60 = getelementptr inbounds %struct.Gia_Obj_t_, ptr %15, i64 %59, i32 1
  %61 = load i32, ptr %60, align 4
  %62 = trunc i64 %.val32 to i32
  %63 = lshr i32 %62, 29
  %64 = and i32 %63, 1
  %65 = xor i32 %61, %64
  %66 = tail call fastcc i32 @Gia_ManAppendCo(ptr noundef %0, i32 noundef %65)
  br label %.sink.split

.sink.split:                                      ; preds = %39, %58, %19
  %.sink = phi i32 [ %36, %19 ], [ %66, %58 ], [ %56, %39 ]
  %67 = getelementptr inbounds nuw i8, ptr %15, i64 8
  store i32 %.sink, ptr %67, align 4
  br label %68

68:                                               ; preds = %.sink.split, %57
  %indvars.iv.next = add nuw nsw i64 %indvars.iv, 1
  %69 = load i32, ptr %9, align 8
  %70 = sext i32 %69 to i64
  %71 = icmp slt i64 %indvars.iv.next, %70
  br i1 %71, label %14, label %.critedge, !llvm.loop !93

.critedge:                                        ; preds = %68, %6
  ret void
}